	.text
	.file	"builtin.c"
	.globl	print                   # -- Begin function print
	.p2align	4, 0x90
	.type	print,@function
print:                                  # @print
	.cfi_startproc
# %bb.0:
	pushq	%rbp
	.cfi_def_cfa_offset 16
	.cfi_offset %rbp, -16
	movq	%rsp, %rbp
	.cfi_def_cfa_register %rbp
	subq	$16, %rsp
	movq	%rdi, -8(%rbp)
	movq	-8(%rbp), %rsi
	movabsq	$.L.str, %rdi
	movb	$0, %al
	callq	printf
	addq	$16, %rsp
	popq	%rbp
	.cfi_def_cfa %rsp, 8
	retq
.Lfunc_end0:
	.size	print, .Lfunc_end0-print
	.cfi_endproc
                                        # -- End function
	.globl	println                 # -- Begin function println
	.p2align	4, 0x90
	.type	println,@function
println:                                # @println
	.cfi_startproc
# %bb.0:
	pushq	%rbp
	.cfi_def_cfa_offset 16
	.cfi_offset %rbp, -16
	movq	%rsp, %rbp
	.cfi_def_cfa_register %rbp
	subq	$16, %rsp
	movq	%rdi, -8(%rbp)
	movq	-8(%rbp), %rsi
	movabsq	$.L.str.1, %rdi
	movb	$0, %al
	callq	printf
	addq	$16, %rsp
	popq	%rbp
	.cfi_def_cfa %rsp, 8
	retq
.Lfunc_end1:
	.size	println, .Lfunc_end1-println
	.cfi_endproc
                                        # -- End function
	.globl	printInt                # -- Begin function printInt
	.p2align	4, 0x90
	.type	printInt,@function
printInt:                               # @printInt
	.cfi_startproc
# %bb.0:
	pushq	%rbp
	.cfi_def_cfa_offset 16
	.cfi_offset %rbp, -16
	movq	%rsp, %rbp
	.cfi_def_cfa_register %rbp
	subq	$16, %rsp
	movl	%edi, -4(%rbp)
	movl	-4(%rbp), %esi
	movabsq	$.L.str.2, %rdi
	movb	$0, %al
	callq	printf
	addq	$16, %rsp
	popq	%rbp
	.cfi_def_cfa %rsp, 8
	retq
.Lfunc_end2:
	.size	printInt, .Lfunc_end2-printInt
	.cfi_endproc
                                        # -- End function
	.globl	printlnInt              # -- Begin function printlnInt
	.p2align	4, 0x90
	.type	printlnInt,@function
printlnInt:                             # @printlnInt
	.cfi_startproc
# %bb.0:
	pushq	%rbp
	.cfi_def_cfa_offset 16
	.cfi_offset %rbp, -16
	movq	%rsp, %rbp
	.cfi_def_cfa_register %rbp
	subq	$16, %rsp
	movl	%edi, -4(%rbp)
	movl	-4(%rbp), %esi
	movabsq	$.L.str.3, %rdi
	movb	$0, %al
	callq	printf
	addq	$16, %rsp
	popq	%rbp
	.cfi_def_cfa %rsp, 8
	retq
.Lfunc_end3:
	.size	printlnInt, .Lfunc_end3-printlnInt
	.cfi_endproc
                                        # -- End function
	.globl	__merge_string          # -- Begin function __merge_string
	.p2align	4, 0x90
	.type	__merge_string,@function
__merge_string:                         # @__merge_string
	.cfi_startproc
# %bb.0:
	pushq	%rbp
	.cfi_def_cfa_offset 16
	.cfi_offset %rbp, -16
	movq	%rsp, %rbp
	.cfi_def_cfa_register %rbp
	subq	$64, %rsp
	movq	%rdi, -8(%rbp)
	movq	%rsi, -16(%rbp)
	movq	-8(%rbp), %rdi
	callq	strlen
	movq	-16(%rbp), %rdi
	movq	%rax, -40(%rbp)         # 8-byte Spill
	callq	strlen
	movq	-40(%rbp), %rcx         # 8-byte Reload
	addq	%rax, %rcx
	addq	$1, %rcx
                                        # kill: def $ecx killed $ecx killed $rcx
	movl	%ecx, -20(%rbp)
	movslq	-20(%rbp), %rax
	shlq	$0, %rax
	movq	%rax, %rdi
	callq	malloc
	movq	%rax, -32(%rbp)
	movq	-32(%rbp), %rax
	movb	$0, (%rax)
	movq	-32(%rbp), %rdi
	movq	-8(%rbp), %rsi
	callq	strcat
	movq	-32(%rbp), %rdi
	movq	-16(%rbp), %rsi
	movq	%rax, -48(%rbp)         # 8-byte Spill
	callq	strcat
	movq	-32(%rbp), %rdx
	movl	-20(%rbp), %ecx
	subl	$1, %ecx
	movslq	%ecx, %rsi
	movb	$0, (%rdx,%rsi)
	movq	-32(%rbp), %rdx
	movq	%rax, -56(%rbp)         # 8-byte Spill
	movq	%rdx, %rax
	addq	$64, %rsp
	popq	%rbp
	.cfi_def_cfa %rsp, 8
	retq
.Lfunc_end4:
	.size	__merge_string, .Lfunc_end4-__merge_string
	.cfi_endproc
                                        # -- End function
	.globl	__string_slt            # -- Begin function __string_slt
	.p2align	4, 0x90
	.type	__string_slt,@function
__string_slt:                           # @__string_slt
	.cfi_startproc
# %bb.0:
	pushq	%rbp
	.cfi_def_cfa_offset 16
	.cfi_offset %rbp, -16
	movq	%rsp, %rbp
	.cfi_def_cfa_register %rbp
	subq	$16, %rsp
	movq	%rdi, -8(%rbp)
	movq	%rsi, -16(%rbp)
	movq	-8(%rbp), %rdi
	movq	-16(%rbp), %rsi
	callq	strcmp
	cmpl	$0, %eax
	setl	%cl
	andb	$1, %cl
	movzbl	%cl, %eax
                                        # kill: def $al killed $al killed $eax
	movzbl	%al, %eax
	addq	$16, %rsp
	popq	%rbp
	.cfi_def_cfa %rsp, 8
	retq
.Lfunc_end5:
	.size	__string_slt, .Lfunc_end5-__string_slt
	.cfi_endproc
                                        # -- End function
	.globl	__string_sle            # -- Begin function __string_sle
	.p2align	4, 0x90
	.type	__string_sle,@function
__string_sle:                           # @__string_sle
	.cfi_startproc
# %bb.0:
	pushq	%rbp
	.cfi_def_cfa_offset 16
	.cfi_offset %rbp, -16
	movq	%rsp, %rbp
	.cfi_def_cfa_register %rbp
	subq	$16, %rsp
	movq	%rdi, -8(%rbp)
	movq	%rsi, -16(%rbp)
	movq	-8(%rbp), %rdi
	movq	-16(%rbp), %rsi
	callq	strcmp
	cmpl	$0, %eax
	setle	%cl
	andb	$1, %cl
	movzbl	%cl, %eax
                                        # kill: def $al killed $al killed $eax
	movzbl	%al, %eax
	addq	$16, %rsp
	popq	%rbp
	.cfi_def_cfa %rsp, 8
	retq
.Lfunc_end6:
	.size	__string_sle, .Lfunc_end6-__string_sle
	.cfi_endproc
                                        # -- End function
	.globl	__string_sgt            # -- Begin function __string_sgt
	.p2align	4, 0x90
	.type	__string_sgt,@function
__string_sgt:                           # @__string_sgt
	.cfi_startproc
# %bb.0:
	pushq	%rbp
	.cfi_def_cfa_offset 16
	.cfi_offset %rbp, -16
	movq	%rsp, %rbp
	.cfi_def_cfa_register %rbp
	subq	$16, %rsp
	movq	%rdi, -8(%rbp)
	movq	%rsi, -16(%rbp)
	movq	-8(%rbp), %rdi
	movq	-16(%rbp), %rsi
	callq	strcmp
	cmpl	$0, %eax
	setg	%cl
	andb	$1, %cl
	movzbl	%cl, %eax
                                        # kill: def $al killed $al killed $eax
	movzbl	%al, %eax
	addq	$16, %rsp
	popq	%rbp
	.cfi_def_cfa %rsp, 8
	retq
.Lfunc_end7:
	.size	__string_sgt, .Lfunc_end7-__string_sgt
	.cfi_endproc
                                        # -- End function
	.globl	__string_sge            # -- Begin function __string_sge
	.p2align	4, 0x90
	.type	__string_sge,@function
__string_sge:                           # @__string_sge
	.cfi_startproc
# %bb.0:
	pushq	%rbp
	.cfi_def_cfa_offset 16
	.cfi_offset %rbp, -16
	movq	%rsp, %rbp
	.cfi_def_cfa_register %rbp
	subq	$16, %rsp
	movq	%rdi, -8(%rbp)
	movq	%rsi, -16(%rbp)
	movq	-8(%rbp), %rdi
	movq	-16(%rbp), %rsi
	callq	strcmp
	cmpl	$0, %eax
	setge	%cl
	andb	$1, %cl
	movzbl	%cl, %eax
                                        # kill: def $al killed $al killed $eax
	movzbl	%al, %eax
	addq	$16, %rsp
	popq	%rbp
	.cfi_def_cfa %rsp, 8
	retq
.Lfunc_end8:
	.size	__string_sge, .Lfunc_end8-__string_sge
	.cfi_endproc
                                        # -- End function
	.globl	__string_eq             # -- Begin function __string_eq
	.p2align	4, 0x90
	.type	__string_eq,@function
__string_eq:                            # @__string_eq
	.cfi_startproc
# %bb.0:
	pushq	%rbp
	.cfi_def_cfa_offset 16
	.cfi_offset %rbp, -16
	movq	%rsp, %rbp
	.cfi_def_cfa_register %rbp
	subq	$16, %rsp
	movq	%rdi, -8(%rbp)
	movq	%rsi, -16(%rbp)
	movq	-8(%rbp), %rdi
	movq	-16(%rbp), %rsi
	callq	strcmp
	cmpl	$0, %eax
	sete	%cl
	andb	$1, %cl
	movzbl	%cl, %eax
                                        # kill: def $al killed $al killed $eax
	movzbl	%al, %eax
	addq	$16, %rsp
	popq	%rbp
	.cfi_def_cfa %rsp, 8
	retq
.Lfunc_end9:
	.size	__string_eq, .Lfunc_end9-__string_eq
	.cfi_endproc
                                        # -- End function
	.globl	__string_ne             # -- Begin function __string_ne
	.p2align	4, 0x90
	.type	__string_ne,@function
__string_ne:                            # @__string_ne
	.cfi_startproc
# %bb.0:
	pushq	%rbp
	.cfi_def_cfa_offset 16
	.cfi_offset %rbp, -16
	movq	%rsp, %rbp
	.cfi_def_cfa_register %rbp
	subq	$16, %rsp
	movq	%rdi, -8(%rbp)
	movq	%rsi, -16(%rbp)
	movq	-8(%rbp), %rdi
	movq	-16(%rbp), %rsi
	callq	strcmp
	cmpl	$0, %eax
	setne	%cl
	andb	$1, %cl
	movzbl	%cl, %eax
                                        # kill: def $al killed $al killed $eax
	movzbl	%al, %eax
	addq	$16, %rsp
	popq	%rbp
	.cfi_def_cfa %rsp, 8
	retq
.Lfunc_end10:
	.size	__string_ne, .Lfunc_end10-__string_ne
	.cfi_endproc
                                        # -- End function
	.globl	getInt                  # -- Begin function getInt
	.p2align	4, 0x90
	.type	getInt,@function
getInt:                                 # @getInt
	.cfi_startproc
# %bb.0:
	pushq	%rbp
	.cfi_def_cfa_offset 16
	.cfi_offset %rbp, -16
	movq	%rsp, %rbp
	.cfi_def_cfa_register %rbp
	subq	$16, %rsp
	movabsq	$.L.str.2, %rdi
	leaq	-4(%rbp), %rsi
	movb	$0, %al
	callq	__isoc99_scanf
	movl	-4(%rbp), %ecx
	movl	%eax, -8(%rbp)          # 4-byte Spill
	movl	%ecx, %eax
	addq	$16, %rsp
	popq	%rbp
	.cfi_def_cfa %rsp, 8
	retq
.Lfunc_end11:
	.size	getInt, .Lfunc_end11-getInt
	.cfi_endproc
                                        # -- End function
	.globl	getString               # -- Begin function getString
	.p2align	4, 0x90
	.type	getString,@function
getString:                              # @getString
	.cfi_startproc
# %bb.0:
	pushq	%rbp
	.cfi_def_cfa_offset 16
	.cfi_offset %rbp, -16
	movq	%rsp, %rbp
	.cfi_def_cfa_register %rbp
	subq	$16, %rsp
	movl	$256, %edi              # imm = 0x100
	callq	malloc
	movq	%rax, -8(%rbp)
	movq	-8(%rbp), %rsi
	movabsq	$.L.str, %rdi
	movb	$0, %al
	callq	__isoc99_scanf
	movq	-8(%rbp), %rcx
	movl	%eax, -12(%rbp)         # 4-byte Spill
	movq	%rcx, %rax
	addq	$16, %rsp
	popq	%rbp
	.cfi_def_cfa %rsp, 8
	retq
.Lfunc_end12:
	.size	getString, .Lfunc_end12-getString
	.cfi_endproc
                                        # -- End function
	.globl	toString                # -- Begin function toString
	.p2align	4, 0x90
	.type	toString,@function
toString:                               # @toString
	.cfi_startproc
# %bb.0:
	pushq	%rbp
	.cfi_def_cfa_offset 16
	.cfi_offset %rbp, -16
	movq	%rsp, %rbp
	.cfi_def_cfa_register %rbp
	subq	$32, %rsp
	movl	%edi, -4(%rbp)
	movl	$256, %edi              # imm = 0x100
	callq	malloc
	movq	%rax, -16(%rbp)
	movq	-16(%rbp), %rdi
	movl	-4(%rbp), %edx
	movabsq	$.L.str.2, %rsi
	movb	$0, %al
	callq	sprintf
	movq	-16(%rbp), %rcx
	movl	%eax, -20(%rbp)         # 4-byte Spill
	movq	%rcx, %rax
	addq	$32, %rsp
	popq	%rbp
	.cfi_def_cfa %rsp, 8
	retq
.Lfunc_end13:
	.size	toString, .Lfunc_end13-toString
	.cfi_endproc
                                        # -- End function
	.globl	__malloc                # -- Begin function __malloc
	.p2align	4, 0x90
	.type	__malloc,@function
__malloc:                               # @__malloc
	.cfi_startproc
# %bb.0:
	pushq	%rbp
	.cfi_def_cfa_offset 16
	.cfi_offset %rbp, -16
	movq	%rsp, %rbp
	.cfi_def_cfa_register %rbp
	subq	$16, %rsp
	movl	%edi, -4(%rbp)
	movslq	-4(%rbp), %rdi
	callq	malloc
	addq	$16, %rsp
	popq	%rbp
	.cfi_def_cfa %rsp, 8
	retq
.Lfunc_end14:
	.size	__malloc, .Lfunc_end14-__malloc
	.cfi_endproc
                                        # -- End function
	.globl	__string_length         # -- Begin function __string_length
	.p2align	4, 0x90
	.type	__string_length,@function
__string_length:                        # @__string_length
	.cfi_startproc
# %bb.0:
	pushq	%rbp
	.cfi_def_cfa_offset 16
	.cfi_offset %rbp, -16
	movq	%rsp, %rbp
	.cfi_def_cfa_register %rbp
	subq	$16, %rsp
	movq	%rdi, -8(%rbp)
	movq	-8(%rbp), %rdi
	callq	strlen
                                        # kill: def $eax killed $eax killed $rax
	addq	$16, %rsp
	popq	%rbp
	.cfi_def_cfa %rsp, 8
	retq
.Lfunc_end15:
	.size	__string_length, .Lfunc_end15-__string_length
	.cfi_endproc
                                        # -- End function
	.globl	__string_substring      # -- Begin function __string_substring
	.p2align	4, 0x90
	.type	__string_substring,@function
__string_substring:                     # @__string_substring
	.cfi_startproc
# %bb.0:
	pushq	%rbp
	.cfi_def_cfa_offset 16
	.cfi_offset %rbp, -16
	movq	%rsp, %rbp
	.cfi_def_cfa_register %rbp
	subq	$32, %rsp
	movq	%rdi, -8(%rbp)
	movl	%esi, -12(%rbp)
	movl	%edx, -16(%rbp)
	movl	-16(%rbp), %eax
	subl	-12(%rbp), %eax
	addl	$1, %eax
	movl	%eax, -20(%rbp)
	movslq	-20(%rbp), %rcx
	shlq	$0, %rcx
	movq	%rcx, %rdi
	callq	malloc
	movq	%rax, -32(%rbp)
	movq	-32(%rbp), %rdi
	movq	-8(%rbp), %rax
	movslq	-12(%rbp), %rcx
	addq	%rcx, %rax
	movslq	-20(%rbp), %rdx
	movq	%rax, %rsi
	callq	memcpy
	movq	-32(%rbp), %rax
	movl	-20(%rbp), %r8d
	subl	$1, %r8d
	movslq	%r8d, %rcx
	movb	$0, (%rax,%rcx)
	movq	-32(%rbp), %rax
	addq	$32, %rsp
	popq	%rbp
	.cfi_def_cfa %rsp, 8
	retq
.Lfunc_end16:
	.size	__string_substring, .Lfunc_end16-__string_substring
	.cfi_endproc
                                        # -- End function
	.globl	__string_parseInt       # -- Begin function __string_parseInt
	.p2align	4, 0x90
	.type	__string_parseInt,@function
__string_parseInt:                      # @__string_parseInt
	.cfi_startproc
# %bb.0:
	pushq	%rbp
	.cfi_def_cfa_offset 16
	.cfi_offset %rbp, -16
	movq	%rsp, %rbp
	.cfi_def_cfa_register %rbp
	subq	$16, %rsp
	movq	%rdi, -8(%rbp)
	movq	-8(%rbp), %rdi
	movabsq	$.L.str.2, %rsi
	leaq	-12(%rbp), %rdx
	movb	$0, %al
	callq	__isoc99_sscanf
	movl	-12(%rbp), %ecx
	movl	%eax, -16(%rbp)         # 4-byte Spill
	movl	%ecx, %eax
	addq	$16, %rsp
	popq	%rbp
	.cfi_def_cfa %rsp, 8
	retq
.Lfunc_end17:
	.size	__string_parseInt, .Lfunc_end17-__string_parseInt
	.cfi_endproc
                                        # -- End function
	.globl	__string_ord            # -- Begin function __string_ord
	.p2align	4, 0x90
	.type	__string_ord,@function
__string_ord:                           # @__string_ord
	.cfi_startproc
# %bb.0:
	pushq	%rbp
	.cfi_def_cfa_offset 16
	.cfi_offset %rbp, -16
	movq	%rsp, %rbp
	.cfi_def_cfa_register %rbp
	movq	%rdi, -8(%rbp)
	movl	%esi, -12(%rbp)
	movq	-8(%rbp), %rax
	movslq	-12(%rbp), %rcx
	movsbl	(%rax,%rcx), %eax
	popq	%rbp
	.cfi_def_cfa %rsp, 8
	retq
.Lfunc_end18:
	.size	__string_ord, .Lfunc_end18-__string_ord
	.cfi_endproc
                                        # -- End function
	.type	.L.str,@object          # @.str
	.section	.rodata.str1.1,"aMS",@progbits,1
.L.str:
	.asciz	"%s"
	.size	.L.str, 3

	.type	.L.str.1,@object        # @.str.1
.L.str.1:
	.asciz	"%s\n"
	.size	.L.str.1, 4

	.type	.L.str.2,@object        # @.str.2
.L.str.2:
	.asciz	"%d"
	.size	.L.str.2, 3

	.type	.L.str.3,@object        # @.str.3
.L.str.3:
	.asciz	"%d\n"
	.size	.L.str.3, 4

	.ident	"clang version 10.0.0-4ubuntu1 "
	.section	".note.GNU-stack","",@progbits
	.addrsig
	.addrsig_sym printf
	.addrsig_sym strlen
	.addrsig_sym malloc
	.addrsig_sym strcat
	.addrsig_sym strcmp
	.addrsig_sym __isoc99_scanf
	.addrsig_sym sprintf
	.addrsig_sym __isoc99_sscanf
